target datalayout = "e-m:e-p270:32:32-p271:32:32-p272:64:64-i64:64-i128:128-f80:128-n8:16:32:64-S128"
target triple = "x86_64-pc-linux-gnu"

%struct.TCGOp = type { i32, i32, %union.anon, [2 x i32], [0 x i64] }
%union.anon = type { %struct.QTailQLink }
%struct.QTailQLink = type { ptr, ptr }

; Function Attrs: noinline nounwind sspstrong uwtable
define dso_local ptr @tcg_gen_op3(i32 noundef %0, i32 noundef %1, i64 noundef %2, i64 noundef %3, i64 noundef %4) #0 {
  %6 = alloca i32, align 4
  %7 = alloca i32, align 4
  %8 = alloca i64, align 8
  %9 = alloca i64, align 8
  %10 = alloca i64, align 8
  %11 = alloca ptr, align 8
  store i32 %0, ptr %6, align 4
  store i32 %1, ptr %7, align 4
  store i64 %2, ptr %8, align 8
  store i64 %3, ptr %9, align 8
  store i64 %4, ptr %10, align 8
  call void @llvm.lifetime.start.p0(i64 8, ptr %11) #7
  %12 = load i32, ptr %6, align 4
  %13 = call ptr @tcg_emit_op(i32 noundef %12, i32 noundef 3)
  store ptr %13, ptr %11, align 8
  %14 = load i32, ptr %7, align 4
  %15 = load ptr, ptr %11, align 8
  %16 = load i32, ptr %15, align 8
  %17 = and i32 %14, 255
  %18 = shl i32 %17, 16
  %19 = and i32 %16, -16711681
  %20 = or i32 %19, %18
  store i32 %20, ptr %15, align 8
  %21 = load i64, ptr %8, align 8
  %22 = load ptr, ptr %11, align 8
  %23 = getelementptr inbounds nuw %struct.TCGOp, ptr %22, i32 0, i32 4
  %24 = getelementptr inbounds [0 x i64], ptr %23, i64 0, i64 0
  store i64 %21, ptr %24, align 8
  %25 = load i64, ptr %9, align 8
  %26 = load ptr, ptr %11, align 8
  %27 = getelementptr inbounds nuw %struct.TCGOp, ptr %26, i32 0, i32 4
  %28 = getelementptr inbounds [0 x i64], ptr %27, i64 0, i64 1
  store i64 %25, ptr %28, align 8
  %29 = load i64, ptr %10, align 8
  %30 = load ptr, ptr %11, align 8
  %31 = getelementptr inbounds nuw %struct.TCGOp, ptr %30, i32 0, i32 4
  %32 = getelementptr inbounds [0 x i64], ptr %31, i64 0, i64 2
  store i64 %29, ptr %32, align 8
  %33 = load ptr, ptr %11, align 8
  call void @llvm.lifetime.end.p0(i64 8, ptr %11) #7
  ret ptr %33
}