; Function Attrs: noinline nounwind sspstrong uwtable
define dso_local noundef ptr @tcg_gen_op3(i32 noundef %0, i32 noundef %1, i64 noundef %2, i64 noundef %3, i64 noundef %4) local_unnamed_addr #0 {
  %6 = tail call ptr @tcg_emit_op(i32 noundef %0, i32 noundef 3) #6
  %7 = load i32, ptr %6, align 8
  %8 = shl i32 %1, 16
  %9 = and i32 %8, 16711680
  %10 = and i32 %7, -16711681
  %11 = or disjoint i32 %10, %9
  store i32 %11, ptr %6, align 8
  %12 = getelementptr inbounds nuw i8, ptr %6, i64 32
  store i64 %2, ptr %12, align 8
  %13 = getelementptr inbounds nuw i8, ptr %6, i64 40
  store i64 %3, ptr %13, align 8
  %14 = getelementptr inbounds nuw i8, ptr %6, i64 48
  store i64 %4, ptr %14, align 8
  ret ptr %6
}